; Function Attrs: mustprogress nofree norecurse nosync nounwind willreturn memory(argmem: write) uwtable
define hidden void @_ZN4cvc58internal6theory16RelevanceManager5checkENS1_6Theory6EffortE(ptr noundef nonnull writeonly align 8 captures(none) dereferenceable(656) %0, i32 noundef %1) unnamed_addr #7 align 2 {
  %3 = icmp eq i32 %1, 100
  br i1 %3, label %4, label %7

4:                                                ; preds = %2
  %5 = getelementptr inbounds nuw i8, ptr %0, i64 408
  store i8 1, ptr %5, align 8, !tbaa !377
  %6 = getelementptr inbounds nuw i8, ptr %0, i64 409
  store i8 0, ptr %6, align 1, !tbaa !378
  br label %7

7:                                                ; preds = %4, %2
  ret void
}